target datalayout = "e-m:e-p270:32:32-p271:32:32-p272:64:64-i64:64-i128:128-f80:128-n8:16:32:64-S128"
target triple = "x86_64-pc-linux-gnu"

; Function Attrs: nounwind uwtable
define dso_local void @hllDenseRegHisto(ptr noundef %0, ptr noundef %1) #0 {
  %3 = alloca ptr, align 8
  %4 = alloca ptr, align 8
  %5 = alloca i32, align 4
  %6 = alloca ptr, align 8
  %7 = alloca i64, align 8
  %8 = alloca i64, align 8
  %9 = alloca i64, align 8
  %10 = alloca i64, align 8
  %11 = alloca i64, align 8
  %12 = alloca i64, align 8
  %13 = alloca i64, align 8
  %14 = alloca i64, align 8
  %15 = alloca i64, align 8
  %16 = alloca i64, align 8
  %17 = alloca i64, align 8
  %18 = alloca i64, align 8
  %19 = alloca i64, align 8
  %20 = alloca i64, align 8
  %21 = alloca i64, align 8
  %22 = alloca i64, align 8
  store ptr %0, ptr %3, align 8, !tbaa !13
  store ptr %1, ptr %4, align 8, !tbaa !20
  call void @llvm.lifetime.start.p0(i64 4, ptr %5) #15
  call void @llvm.lifetime.start.p0(i64 8, ptr %6) #15
  %23 = load ptr, ptr %3, align 8, !tbaa !13
  store ptr %23, ptr %6, align 8, !tbaa !13
  call void @llvm.lifetime.start.p0(i64 8, ptr %7) #15
  call void @llvm.lifetime.start.p0(i64 8, ptr %8) #15
  call void @llvm.lifetime.start.p0(i64 8, ptr %9) #15
  call void @llvm.lifetime.start.p0(i64 8, ptr %10) #15
  call void @llvm.lifetime.start.p0(i64 8, ptr %11) #15
  call void @llvm.lifetime.start.p0(i64 8, ptr %12) #15
  call void @llvm.lifetime.start.p0(i64 8, ptr %13) #15
  call void @llvm.lifetime.start.p0(i64 8, ptr %14) #15
  call void @llvm.lifetime.start.p0(i64 8, ptr %15) #15
  call void @llvm.lifetime.start.p0(i64 8, ptr %16) #15
  call void @llvm.lifetime.start.p0(i64 8, ptr %17) #15
  call void @llvm.lifetime.start.p0(i64 8, ptr %18) #15
  call void @llvm.lifetime.start.p0(i64 8, ptr %19) #15
  call void @llvm.lifetime.start.p0(i64 8, ptr %20) #15
  call void @llvm.lifetime.start.p0(i64 8, ptr %21) #15
  call void @llvm.lifetime.start.p0(i64 8, ptr %22) #15
  store i32 0, ptr %5, align 4, !tbaa !9
  br label %24

24:                                               ; preds = %266, %2
  %25 = load i32, ptr %5, align 4, !tbaa !9
  %26 = icmp slt i32 %25, 1024
  br i1 %26, label %27, label %269

27:                                               ; preds = %24
  %28 = load ptr, ptr %6, align 8, !tbaa !13
  %29 = getelementptr inbounds i8, ptr %28, i64 0
  %30 = load i8, ptr %29, align 1, !tbaa !17
  %31 = zext i8 %30 to i32
  %32 = and i32 %31, 63
  %33 = sext i32 %32 to i64
  store i64 %33, ptr %7, align 8, !tbaa !11
  %34 = load ptr, ptr %6, align 8, !tbaa !13
  %35 = getelementptr inbounds i8, ptr %34, i64 0
  %36 = load i8, ptr %35, align 1, !tbaa !17
  %37 = zext i8 %36 to i32
  %38 = ashr i32 %37, 6
  %39 = load ptr, ptr %6, align 8, !tbaa !13
  %40 = getelementptr inbounds i8, ptr %39, i64 1
  %41 = load i8, ptr %40, align 1, !tbaa !17
  %42 = zext i8 %41 to i32
  %43 = shl i32 %42, 2
  %44 = or i32 %38, %43
  %45 = and i32 %44, 63
  %46 = sext i32 %45 to i64
  store i64 %46, ptr %8, align 8, !tbaa !11
  %47 = load ptr, ptr %6, align 8, !tbaa !13
  %48 = getelementptr inbounds i8, ptr %47, i64 1
  %49 = load i8, ptr %48, align 1, !tbaa !17
  %50 = zext i8 %49 to i32
  %51 = ashr i32 %50, 4
  %52 = load ptr, ptr %6, align 8, !tbaa !13
  %53 = getelementptr inbounds i8, ptr %52, i64 2
  %54 = load i8, ptr %53, align 1, !tbaa !17
  %55 = zext i8 %54 to i32
  %56 = shl i32 %55, 4
  %57 = or i32 %51, %56
  %58 = and i32 %57, 63
  %59 = sext i32 %58 to i64
  store i64 %59, ptr %9, align 8, !tbaa !11
  %60 = load ptr, ptr %6, align 8, !tbaa !13
  %61 = getelementptr inbounds i8, ptr %60, i64 2
  %62 = load i8, ptr %61, align 1, !tbaa !17
  %63 = zext i8 %62 to i32
  %64 = ashr i32 %63, 2
  %65 = and i32 %64, 63
  %66 = sext i32 %65 to i64
  store i64 %66, ptr %10, align 8, !tbaa !11
  %67 = load ptr, ptr %6, align 8, !tbaa !13
  %68 = getelementptr inbounds i8, ptr %67, i64 3
  %69 = load i8, ptr %68, align 1, !tbaa !17
  %70 = zext i8 %69 to i32
  %71 = and i32 %70, 63
  %72 = sext i32 %71 to i64
  store i64 %72, ptr %11, align 8, !tbaa !11
  %73 = load ptr, ptr %6, align 8, !tbaa !13
  %74 = getelementptr inbounds i8, ptr %73, i64 3
  %75 = load i8, ptr %74, align 1, !tbaa !17
  %76 = zext i8 %75 to i32
  %77 = ashr i32 %76, 6
  %78 = load ptr, ptr %6, align 8, !tbaa !13
  %79 = getelementptr inbounds i8, ptr %78, i64 4
  %80 = load i8, ptr %79, align 1, !tbaa !17
  %81 = zext i8 %80 to i32
  %82 = shl i32 %81, 2
  %83 = or i32 %77, %82
  %84 = and i32 %83, 63
  %85 = sext i32 %84 to i64
  store i64 %85, ptr %12, align 8, !tbaa !11
  %86 = load ptr, ptr %6, align 8, !tbaa !13
  %87 = getelementptr inbounds i8, ptr %86, i64 4
  %88 = load i8, ptr %87, align 1, !tbaa !17
  %89 = zext i8 %88 to i32
  %90 = ashr i32 %89, 4
  %91 = load ptr, ptr %6, align 8, !tbaa !13
  %92 = getelementptr inbounds i8, ptr %91, i64 5
  %93 = load i8, ptr %92, align 1, !tbaa !17
  %94 = zext i8 %93 to i32
  %95 = shl i32 %94, 4
  %96 = or i32 %90, %95
  %97 = and i32 %96, 63
  %98 = sext i32 %97 to i64
  store i64 %98, ptr %13, align 8, !tbaa !11
  %99 = load ptr, ptr %6, align 8, !tbaa !13
  %100 = getelementptr inbounds i8, ptr %99, i64 5
  %101 = load i8, ptr %100, align 1, !tbaa !17
  %102 = zext i8 %101 to i32
  %103 = ashr i32 %102, 2
  %104 = and i32 %103, 63
  %105 = sext i32 %104 to i64
  store i64 %105, ptr %14, align 8, !tbaa !11
  %106 = load ptr, ptr %6, align 8, !tbaa !13
  %107 = getelementptr inbounds i8, ptr %106, i64 6
  %108 = load i8, ptr %107, align 1, !tbaa !17
  %109 = zext i8 %108 to i32
  %110 = and i32 %109, 63
  %111 = sext i32 %110 to i64
  store i64 %111, ptr %15, align 8, !tbaa !11
  %112 = load ptr, ptr %6, align 8, !tbaa !13
  %113 = getelementptr inbounds i8, ptr %112, i64 6
  %114 = load i8, ptr %113, align 1, !tbaa !17
  %115 = zext i8 %114 to i32
  %116 = ashr i32 %115, 6
  %117 = load ptr, ptr %6, align 8, !tbaa !13
  %118 = getelementptr inbounds i8, ptr %117, i64 7
  %119 = load i8, ptr %118, align 1, !tbaa !17
  %120 = zext i8 %119 to i32
  %121 = shl i32 %120, 2
  %122 = or i32 %116, %121
  %123 = and i32 %122, 63
  %124 = sext i32 %123 to i64
  store i64 %124, ptr %16, align 8, !tbaa !11
  %125 = load ptr, ptr %6, align 8, !tbaa !13
  %126 = getelementptr inbounds i8, ptr %125, i64 7
  %127 = load i8, ptr %126, align 1, !tbaa !17
  %128 = zext i8 %127 to i32
  %129 = ashr i32 %128, 4
  %130 = load ptr, ptr %6, align 8, !tbaa !13
  %131 = getelementptr inbounds i8, ptr %130, i64 8
  %132 = load i8, ptr %131, align 1, !tbaa !17
  %133 = zext i8 %132 to i32
  %134 = shl i32 %133, 4
  %135 = or i32 %129, %134
  %136 = and i32 %135, 63
  %137 = sext i32 %136 to i64
  store i64 %137, ptr %17, align 8, !tbaa !11
  %138 = load ptr, ptr %6, align 8, !tbaa !13
  %139 = getelementptr inbounds i8, ptr %138, i64 8
  %140 = load i8, ptr %139, align 1, !tbaa !17
  %141 = zext i8 %140 to i32
  %142 = ashr i32 %141, 2
  %143 = and i32 %142, 63
  %144 = sext i32 %143 to i64
  store i64 %144, ptr %18, align 8, !tbaa !11
  %145 = load ptr, ptr %6, align 8, !tbaa !13
  %146 = getelementptr inbounds i8, ptr %145, i64 9
  %147 = load i8, ptr %146, align 1, !tbaa !17
  %148 = zext i8 %147 to i32
  %149 = and i32 %148, 63
  %150 = sext i32 %149 to i64
  store i64 %150, ptr %19, align 8, !tbaa !11
  %151 = load ptr, ptr %6, align 8, !tbaa !13
  %152 = getelementptr inbounds i8, ptr %151, i64 9
  %153 = load i8, ptr %152, align 1, !tbaa !17
  %154 = zext i8 %153 to i32
  %155 = ashr i32 %154, 6
  %156 = load ptr, ptr %6, align 8, !tbaa !13
  %157 = getelementptr inbounds i8, ptr %156, i64 10
  %158 = load i8, ptr %157, align 1, !tbaa !17
  %159 = zext i8 %158 to i32
  %160 = shl i32 %159, 2
  %161 = or i32 %155, %160
  %162 = and i32 %161, 63
  %163 = sext i32 %162 to i64
  store i64 %163, ptr %20, align 8, !tbaa !11
  %164 = load ptr, ptr %6, align 8, !tbaa !13
  %165 = getelementptr inbounds i8, ptr %164, i64 10
  %166 = load i8, ptr %165, align 1, !tbaa !17
  %167 = zext i8 %166 to i32
  %168 = ashr i32 %167, 4
  %169 = load ptr, ptr %6, align 8, !tbaa !13
  %170 = getelementptr inbounds i8, ptr %169, i64 11
  %171 = load i8, ptr %170, align 1, !tbaa !17
  %172 = zext i8 %171 to i32
  %173 = shl i32 %172, 4
  %174 = or i32 %168, %173
  %175 = and i32 %174, 63
  %176 = sext i32 %175 to i64
  store i64 %176, ptr %21, align 8, !tbaa !11
  %177 = load ptr, ptr %6, align 8, !tbaa !13
  %178 = getelementptr inbounds i8, ptr %177, i64 11
  %179 = load i8, ptr %178, align 1, !tbaa !17
  %180 = zext i8 %179 to i32
  %181 = ashr i32 %180, 2
  %182 = and i32 %181, 63
  %183 = sext i32 %182 to i64
  store i64 %183, ptr %22, align 8, !tbaa !11
  %184 = load ptr, ptr %4, align 8, !tbaa !20
  %185 = load i64, ptr %7, align 8, !tbaa !11
  %186 = getelementptr inbounds nuw i32, ptr %184, i64 %185
  %187 = load i32, ptr %186, align 4, !tbaa !9
  %188 = add nsw i32 %187, 1
  store i32 %188, ptr %186, align 4, !tbaa !9
  %189 = load ptr, ptr %4, align 8, !tbaa !20
  %190 = load i64, ptr %8, align 8, !tbaa !11
  %191 = getelementptr inbounds nuw i32, ptr %189, i64 %190
  %192 = load i32, ptr %191, align 4, !tbaa !9
  %193 = add nsw i32 %192, 1
  store i32 %193, ptr %191, align 4, !tbaa !9
  %194 = load ptr, ptr %4, align 8, !tbaa !20
  %195 = load i64, ptr %9, align 8, !tbaa !11
  %196 = getelementptr inbounds nuw i32, ptr %194, i64 %195
  %197 = load i32, ptr %196, align 4, !tbaa !9
  %198 = add nsw i32 %197, 1
  store i32 %198, ptr %196, align 4, !tbaa !9
  %199 = load ptr, ptr %4, align 8, !tbaa !20
  %200 = load i64, ptr %10, align 8, !tbaa !11
  %201 = getelementptr inbounds nuw i32, ptr %199, i64 %200
  %202 = load i32, ptr %201, align 4, !tbaa !9
  %203 = add nsw i32 %202, 1
  store i32 %203, ptr %201, align 4, !tbaa !9
  %204 = load ptr, ptr %4, align 8, !tbaa !20
  %205 = load i64, ptr %11, align 8, !tbaa !11
  %206 = getelementptr inbounds nuw i32, ptr %204, i64 %205
  %207 = load i32, ptr %206, align 4, !tbaa !9
  %208 = add nsw i32 %207, 1
  store i32 %208, ptr %206, align 4, !tbaa !9
  %209 = load ptr, ptr %4, align 8, !tbaa !20
  %210 = load i64, ptr %12, align 8, !tbaa !11
  %211 = getelementptr inbounds nuw i32, ptr %209, i64 %210
  %212 = load i32, ptr %211, align 4, !tbaa !9
  %213 = add nsw i32 %212, 1
  store i32 %213, ptr %211, align 4, !tbaa !9
  %214 = load ptr, ptr %4, align 8, !tbaa !20
  %215 = load i64, ptr %13, align 8, !tbaa !11
  %216 = getelementptr inbounds nuw i32, ptr %214, i64 %215
  %217 = load i32, ptr %216, align 4, !tbaa !9
  %218 = add nsw i32 %217, 1
  store i32 %218, ptr %216, align 4, !tbaa !9
  %219 = load ptr, ptr %4, align 8, !tbaa !20
  %220 = load i64, ptr %14, align 8, !tbaa !11
  %221 = getelementptr inbounds nuw i32, ptr %219, i64 %220
  %222 = load i32, ptr %221, align 4, !tbaa !9
  %223 = add nsw i32 %222, 1
  store i32 %223, ptr %221, align 4, !tbaa !9
  %224 = load ptr, ptr %4, align 8, !tbaa !20
  %225 = load i64, ptr %15, align 8, !tbaa !11
  %226 = getelementptr inbounds nuw i32, ptr %224, i64 %225
  %227 = load i32, ptr %226, align 4, !tbaa !9
  %228 = add nsw i32 %227, 1
  store i32 %228, ptr %226, align 4, !tbaa !9
  %229 = load ptr, ptr %4, align 8, !tbaa !20
  %230 = load i64, ptr %16, align 8, !tbaa !11
  %231 = getelementptr inbounds nuw i32, ptr %229, i64 %230
  %232 = load i32, ptr %231, align 4, !tbaa !9
  %233 = add nsw i32 %232, 1
  store i32 %233, ptr %231, align 4, !tbaa !9
  %234 = load ptr, ptr %4, align 8, !tbaa !20
  %235 = load i64, ptr %17, align 8, !tbaa !11
  %236 = getelementptr inbounds nuw i32, ptr %234, i64 %235
  %237 = load i32, ptr %236, align 4, !tbaa !9
  %238 = add nsw i32 %237, 1
  store i32 %238, ptr %236, align 4, !tbaa !9
  %239 = load ptr, ptr %4, align 8, !tbaa !20
  %240 = load i64, ptr %18, align 8, !tbaa !11
  %241 = getelementptr inbounds nuw i32, ptr %239, i64 %240
  %242 = load i32, ptr %241, align 4, !tbaa !9
  %243 = add nsw i32 %242, 1
  store i32 %243, ptr %241, align 4, !tbaa !9
  %244 = load ptr, ptr %4, align 8, !tbaa !20
  %245 = load i64, ptr %19, align 8, !tbaa !11
  %246 = getelementptr inbounds nuw i32, ptr %244, i64 %245
  %247 = load i32, ptr %246, align 4, !tbaa !9
  %248 = add nsw i32 %247, 1
  store i32 %248, ptr %246, align 4, !tbaa !9
  %249 = load ptr, ptr %4, align 8, !tbaa !20
  %250 = load i64, ptr %20, align 8, !tbaa !11
  %251 = getelementptr inbounds nuw i32, ptr %249, i64 %250
  %252 = load i32, ptr %251, align 4, !tbaa !9
  %253 = add nsw i32 %252, 1
  store i32 %253, ptr %251, align 4, !tbaa !9
  %254 = load ptr, ptr %4, align 8, !tbaa !20
  %255 = load i64, ptr %21, align 8, !tbaa !11
  %256 = getelementptr inbounds nuw i32, ptr %254, i64 %255
  %257 = load i32, ptr %256, align 4, !tbaa !9
  %258 = add nsw i32 %257, 1
  store i32 %258, ptr %256, align 4, !tbaa !9
  %259 = load ptr, ptr %4, align 8, !tbaa !20
  %260 = load i64, ptr %22, align 8, !tbaa !11
  %261 = getelementptr inbounds nuw i32, ptr %259, i64 %260
  %262 = load i32, ptr %261, align 4, !tbaa !9
  %263 = add nsw i32 %262, 1
  store i32 %263, ptr %261, align 4, !tbaa !9
  %264 = load ptr, ptr %6, align 8, !tbaa !13
  %265 = getelementptr inbounds i8, ptr %264, i64 12
  store ptr %265, ptr %6, align 8, !tbaa !13
  br label %266

266:                                              ; preds = %27
  %267 = load i32, ptr %5, align 4, !tbaa !9
  %268 = add nsw i32 %267, 1
  store i32 %268, ptr %5, align 4, !tbaa !9
  br label %24, !llvm.loop !22

269:                                              ; preds = %24
  call void @llvm.lifetime.end.p0(i64 8, ptr %22) #15
  call void @llvm.lifetime.end.p0(i64 8, ptr %21) #15
  call void @llvm.lifetime.end.p0(i64 8, ptr %20) #15
  call void @llvm.lifetime.end.p0(i64 8, ptr %19) #15
  call void @llvm.lifetime.end.p0(i64 8, ptr %18) #15
  call void @llvm.lifetime.end.p0(i64 8, ptr %17) #15
  call void @llvm.lifetime.end.p0(i64 8, ptr %16) #15
  call void @llvm.lifetime.end.p0(i64 8, ptr %15) #15
  call void @llvm.lifetime.end.p0(i64 8, ptr %14) #15
  call void @llvm.lifetime.end.p0(i64 8, ptr %13) #15
  call void @llvm.lifetime.end.p0(i64 8, ptr %12) #15
  call void @llvm.lifetime.end.p0(i64 8, ptr %11) #15
  call void @llvm.lifetime.end.p0(i64 8, ptr %10) #15
  call void @llvm.lifetime.end.p0(i64 8, ptr %9) #15
  call void @llvm.lifetime.end.p0(i64 8, ptr %8) #15
  call void @llvm.lifetime.end.p0(i64 8, ptr %7) #15
  call void @llvm.lifetime.end.p0(i64 8, ptr %6) #15
  call void @llvm.lifetime.end.p0(i64 4, ptr %5) #15
  ret void
}