; Function Attrs: nofree norecurse nosync nounwind memory(argmem: readwrite) uwtable
define dso_local void @hllDenseRegHisto(ptr noundef readonly captures(none) %0, ptr noundef captures(none) %1) local_unnamed_addr #2 {
  br label %3

3:                                                ; preds = %2, %3
  %.068 = phi i32 [ 0, %2 ], [ %136, %3 ]
  %.05967 = phi ptr [ %0, %2 ], [ %135, %3 ]
  %4 = load i8, ptr %.05967, align 1, !tbaa !11
  %5 = zext i8 %4 to i32
  %6 = and i32 %5, 63
  %7 = zext nneg i32 %6 to i64
  %8 = lshr i32 %5, 6
  %9 = getelementptr inbounds nuw i8, ptr %.05967, i64 1
  %10 = load i8, ptr %9, align 1, !tbaa !11
  %11 = zext i8 %10 to i32
  %12 = shl nuw nsw i32 %11, 2
  %.masked = and i32 %12, 60
  %13 = or disjoint i32 %.masked, %8
  %14 = zext nneg i32 %13 to i64
  %15 = lshr i32 %11, 4
  %16 = getelementptr inbounds nuw i8, ptr %.05967, i64 2
  %17 = load i8, ptr %16, align 1, !tbaa !11
  %18 = zext i8 %17 to i32
  %19 = shl nuw nsw i32 %18, 4
  %.masked60 = and i32 %19, 48
  %20 = or disjoint i32 %.masked60, %15
  %21 = zext nneg i32 %20 to i64
  %22 = lshr i32 %18, 2
  %23 = zext nneg i32 %22 to i64
  %24 = getelementptr inbounds nuw i8, ptr %.05967, i64 3
  %25 = load i8, ptr %24, align 1, !tbaa !11
  %26 = zext i8 %25 to i32
  %27 = and i32 %26, 63
  %28 = zext nneg i32 %27 to i64
  %29 = lshr i32 %26, 6
  %30 = getelementptr inbounds nuw i8, ptr %.05967, i64 4
  %31 = load i8, ptr %30, align 1, !tbaa !11
  %32 = zext i8 %31 to i32
  %33 = shl nuw nsw i32 %32, 2
  %.masked61 = and i32 %33, 60
  %34 = or disjoint i32 %.masked61, %29
  %35 = zext nneg i32 %34 to i64
  %36 = lshr i32 %32, 4
  %37 = getelementptr inbounds nuw i8, ptr %.05967, i64 5
  %38 = load i8, ptr %37, align 1, !tbaa !11
  %39 = zext i8 %38 to i32
  %40 = shl nuw nsw i32 %39, 4
  %.masked62 = and i32 %40, 48
  %41 = or disjoint i32 %.masked62, %36
  %42 = zext nneg i32 %41 to i64
  %43 = lshr i32 %39, 2
  %44 = zext nneg i32 %43 to i64
  %45 = getelementptr inbounds nuw i8, ptr %.05967, i64 6
  %46 = load i8, ptr %45, align 1, !tbaa !11
  %47 = zext i8 %46 to i32
  %48 = and i32 %47, 63
  %49 = zext nneg i32 %48 to i64
  %50 = lshr i32 %47, 6
  %51 = getelementptr inbounds nuw i8, ptr %.05967, i64 7
  %52 = load i8, ptr %51, align 1, !tbaa !11
  %53 = zext i8 %52 to i32
  %54 = shl nuw nsw i32 %53, 2
  %.masked63 = and i32 %54, 60
  %55 = or disjoint i32 %.masked63, %50
  %56 = zext nneg i32 %55 to i64
  %57 = lshr i32 %53, 4
  %58 = getelementptr inbounds nuw i8, ptr %.05967, i64 8
  %59 = load i8, ptr %58, align 1, !tbaa !11
  %60 = zext i8 %59 to i32
  %61 = shl nuw nsw i32 %60, 4
  %.masked64 = and i32 %61, 48
  %62 = or disjoint i32 %.masked64, %57
  %63 = zext nneg i32 %62 to i64
  %64 = lshr i32 %60, 2
  %65 = zext nneg i32 %64 to i64
  %66 = getelementptr inbounds nuw i8, ptr %.05967, i64 9
  %67 = load i8, ptr %66, align 1, !tbaa !11
  %68 = zext i8 %67 to i32
  %69 = and i32 %68, 63
  %70 = zext nneg i32 %69 to i64
  %71 = lshr i32 %68, 6
  %72 = getelementptr inbounds nuw i8, ptr %.05967, i64 10
  %73 = load i8, ptr %72, align 1, !tbaa !11
  %74 = zext i8 %73 to i32
  %75 = shl nuw nsw i32 %74, 2
  %.masked65 = and i32 %75, 60
  %76 = or disjoint i32 %.masked65, %71
  %77 = zext nneg i32 %76 to i64
  %78 = lshr i32 %74, 4
  %79 = getelementptr inbounds nuw i8, ptr %.05967, i64 11
  %80 = load i8, ptr %79, align 1, !tbaa !11
  %81 = zext i8 %80 to i32
  %82 = shl nuw nsw i32 %81, 4
  %.masked66 = and i32 %82, 48
  %83 = or disjoint i32 %.masked66, %78
  %84 = zext nneg i32 %83 to i64
  %85 = lshr i32 %81, 2
  %86 = zext nneg i32 %85 to i64
  %87 = getelementptr inbounds nuw i32, ptr %1, i64 %7
  %88 = load i32, ptr %87, align 4, !tbaa !12
  %89 = add nsw i32 %88, 1
  store i32 %89, ptr %87, align 4, !tbaa !12
  %90 = getelementptr inbounds nuw i32, ptr %1, i64 %14
  %91 = load i32, ptr %90, align 4, !tbaa !12
  %92 = add nsw i32 %91, 1
  store i32 %92, ptr %90, align 4, !tbaa !12
  %93 = getelementptr inbounds nuw i32, ptr %1, i64 %21
  %94 = load i32, ptr %93, align 4, !tbaa !12
  %95 = add nsw i32 %94, 1
  store i32 %95, ptr %93, align 4, !tbaa !12
  %96 = getelementptr inbounds nuw i32, ptr %1, i64 %23
  %97 = load i32, ptr %96, align 4, !tbaa !12
  %98 = add nsw i32 %97, 1
  store i32 %98, ptr %96, align 4, !tbaa !12
  %99 = getelementptr inbounds nuw i32, ptr %1, i64 %28
  %100 = load i32, ptr %99, align 4, !tbaa !12
  %101 = add nsw i32 %100, 1
  store i32 %101, ptr %99, align 4, !tbaa !12
  %102 = getelementptr inbounds nuw i32, ptr %1, i64 %35
  %103 = load i32, ptr %102, align 4, !tbaa !12
  %104 = add nsw i32 %103, 1
  store i32 %104, ptr %102, align 4, !tbaa !12
  %105 = getelementptr inbounds nuw i32, ptr %1, i64 %42
  %106 = load i32, ptr %105, align 4, !tbaa !12
  %107 = add nsw i32 %106, 1
  store i32 %107, ptr %105, align 4, !tbaa !12
  %108 = getelementptr inbounds nuw i32, ptr %1, i64 %44
  %109 = load i32, ptr %108, align 4, !tbaa !12
  %110 = add nsw i32 %109, 1
  store i32 %110, ptr %108, align 4, !tbaa !12
  %111 = getelementptr inbounds nuw i32, ptr %1, i64 %49
  %112 = load i32, ptr %111, align 4, !tbaa !12
  %113 = add nsw i32 %112, 1
  store i32 %113, ptr %111, align 4, !tbaa !12
  %114 = getelementptr inbounds nuw i32, ptr %1, i64 %56
  %115 = load i32, ptr %114, align 4, !tbaa !12
  %116 = add nsw i32 %115, 1
  store i32 %116, ptr %114, align 4, !tbaa !12
  %117 = getelementptr inbounds nuw i32, ptr %1, i64 %63
  %118 = load i32, ptr %117, align 4, !tbaa !12
  %119 = add nsw i32 %118, 1
  store i32 %119, ptr %117, align 4, !tbaa !12
  %120 = getelementptr inbounds nuw i32, ptr %1, i64 %65
  %121 = load i32, ptr %120, align 4, !tbaa !12
  %122 = add nsw i32 %121, 1
  store i32 %122, ptr %120, align 4, !tbaa !12
  %123 = getelementptr inbounds nuw i32, ptr %1, i64 %70
  %124 = load i32, ptr %123, align 4, !tbaa !12
  %125 = add nsw i32 %124, 1
  store i32 %125, ptr %123, align 4, !tbaa !12
  %126 = getelementptr inbounds nuw i32, ptr %1, i64 %77
  %127 = load i32, ptr %126, align 4, !tbaa !12
  %128 = add nsw i32 %127, 1
  store i32 %128, ptr %126, align 4, !tbaa !12
  %129 = getelementptr inbounds nuw i32, ptr %1, i64 %84
  %130 = load i32, ptr %129, align 4, !tbaa !12
  %131 = add nsw i32 %130, 1
  store i32 %131, ptr %129, align 4, !tbaa !12
  %132 = getelementptr inbounds nuw i32, ptr %1, i64 %86
  %133 = load i32, ptr %132, align 4, !tbaa !12
  %134 = add nsw i32 %133, 1
  store i32 %134, ptr %132, align 4, !tbaa !12
  %135 = getelementptr inbounds nuw i8, ptr %.05967, i64 12
  %136 = add nuw nsw i32 %.068, 1
  %exitcond.not = icmp eq i32 %136, 1024
  br i1 %exitcond.not, label %137, label %3, !llvm.loop !14

137:                                              ; preds = %3
  ret void
}